; ModuleID = '24/389.c'
source_filename = "24/389.c"
target datalayout = "e-m:e-p270:32:32-p271:32:32-p272:64:64-i64:64-f80:128-n8:16:32:64-S128"
target triple = "x86_64-pc-linux-gnu"

@.str = private unnamed_addr constant [3 x i8] c"%c\00", align 1
@.str.1 = private unnamed_addr constant [2 x i8] c"\0A\00", align 1

; Function Attrs: noinline nounwind uwtable
define dso_local void @main() #0 {
  %1 = alloca [500 x i8], align 16
  %2 = alloca [50 x [20 x i8]], align 16
  %3 = alloca [50 x i32], align 16
  %4 = alloca i32, align 4
  %5 = alloca i32, align 4
  %6 = alloca i32, align 4
  %7 = alloca i32, align 4
  %8 = alloca i32, align 4
  %9 = alloca i32, align 4
  store i32 0, i32* %4, align 4
  store i32 0, i32* %5, align 4
  store i32 20, i32* %7, align 4
  store i32 0, i32* %8, align 4
  store i32 0, i32* %9, align 4
  %10 = getelementptr inbounds [500 x i8], [500 x i8]* %1, i64 0, i64 0
  %11 = call i32 (i8*, ...) bitcast (i32 (...)* @gets to i32 (i8*, ...)*)(i8* %10)
  store i32 0, i32* %6, align 4
  br label %12

12:                                               ; preds = %69, %0
  %13 = load i32, i32* %6, align 4
  %14 = icmp slt i32 %13, 50
  br i1 %14, label %15, label %72

15:                                               ; preds = %12
  store i32 0, i32* %9, align 4
  %16 = load i32, i32* %5, align 4
  store i32 %16, i32* %4, align 4
  br label %17

17:                                               ; preds = %53, %15
  %18 = load i32, i32* %4, align 4
  %19 = load i32, i32* %5, align 4
  %20 = add nsw i32 20, %19
  %21 = icmp slt i32 %18, %20
  br i1 %21, label %22, label %56

22:                                               ; preds = %17
  %23 = load i32, i32* %4, align 4
  %24 = sext i32 %23 to i64
  %25 = getelementptr inbounds [500 x i8], [500 x i8]* %1, i64 0, i64 %24
  %26 = load i8, i8* %25, align 1
  %27 = sext i8 %26 to i32
  %28 = icmp eq i32 %27, 32
  br i1 %28, label %36, label %29

29:                                               ; preds = %22
  %30 = load i32, i32* %4, align 4
  %31 = sext i32 %30 to i64
  %32 = getelementptr inbounds [500 x i8], [500 x i8]* %1, i64 0, i64 %31
  %33 = load i8, i8* %32, align 1
  %34 = sext i8 %33 to i32
  %35 = icmp eq i32 %34, 0
  br i1 %35, label %36, label %39

36:                                               ; preds = %29, %22
  %37 = load i32, i32* %4, align 4
  %38 = add nsw i32 %37, 1
  store i32 %38, i32* %5, align 4
  br label %56

39:                                               ; preds = %29
  %40 = load i32, i32* %4, align 4
  %41 = sext i32 %40 to i64
  %42 = getelementptr inbounds [500 x i8], [500 x i8]* %1, i64 0, i64 %41
  %43 = load i8, i8* %42, align 1
  %44 = load i32, i32* %6, align 4
  %45 = sext i32 %44 to i64
  %46 = getelementptr inbounds [50 x [20 x i8]], [50 x [20 x i8]]* %2, i64 0, i64 %45
  %47 = load i32, i32* %9, align 4
  %48 = sext i32 %47 to i64
  %49 = getelementptr inbounds [20 x i8], [20 x i8]* %46, i64 0, i64 %48
  store i8 %43, i8* %49, align 1
  %50 = load i32, i32* %9, align 4
  %51 = add nsw i32 %50, 1
  store i32 %51, i32* %9, align 4
  br label %52

52:                                               ; preds = %39
  br label %53

53:                                               ; preds = %52
  %54 = load i32, i32* %4, align 4
  %55 = add nsw i32 %54, 1
  store i32 %55, i32* %4, align 4
  br label %17

56:                                               ; preds = %36, %17
  %57 = load i32, i32* %9, align 4
  %58 = load i32, i32* %6, align 4
  %59 = sext i32 %58 to i64
  %60 = getelementptr inbounds [50 x i32], [50 x i32]* %3, i64 0, i64 %59
  store i32 %57, i32* %60, align 4
  %61 = load i32, i32* %4, align 4
  %62 = sext i32 %61 to i64
  %63 = getelementptr inbounds [500 x i8], [500 x i8]* %1, i64 0, i64 %62
  %64 = load i8, i8* %63, align 1
  %65 = sext i8 %64 to i32
  %66 = icmp eq i32 %65, 0
  br i1 %66, label %67, label %68

67:                                               ; preds = %56
  br label %72

68:                                               ; preds = %56
  br label %69

69:                                               ; preds = %68
  %70 = load i32, i32* %6, align 4
  %71 = add nsw i32 %70, 1
  store i32 %71, i32* %6, align 4
  br label %12

72:                                               ; preds = %67, %12
  store i32 0, i32* %4, align 4
  br label %73

73:                                               ; preds = %102, %72
  %74 = load i32, i32* %4, align 4
  %75 = load i32, i32* %6, align 4
  %76 = icmp sle i32 %74, %75
  br i1 %76, label %77, label %105

77:                                               ; preds = %73
  %78 = load i32, i32* %4, align 4
  %79 = sext i32 %78 to i64
  %80 = getelementptr inbounds [50 x i32], [50 x i32]* %3, i64 0, i64 %79
  %81 = load i32, i32* %80, align 4
  %82 = load i32, i32* %8, align 4
  %83 = icmp sgt i32 %81, %82
  br i1 %83, label %84, label %89

84:                                               ; preds = %77
  %85 = load i32, i32* %4, align 4
  %86 = sext i32 %85 to i64
  %87 = getelementptr inbounds [50 x i32], [50 x i32]* %3, i64 0, i64 %86
  %88 = load i32, i32* %87, align 4
  store i32 %88, i32* %8, align 4
  br label %89

89:                                               ; preds = %84, %77
  %90 = load i32, i32* %4, align 4
  %91 = sext i32 %90 to i64
  %92 = getelementptr inbounds [50 x i32], [50 x i32]* %3, i64 0, i64 %91
  %93 = load i32, i32* %92, align 4
  %94 = load i32, i32* %7, align 4
  %95 = icmp slt i32 %93, %94
  br i1 %95, label %96, label %101

96:                                               ; preds = %89
  %97 = load i32, i32* %4, align 4
  %98 = sext i32 %97 to i64
  %99 = getelementptr inbounds [50 x i32], [50 x i32]* %3, i64 0, i64 %98
  %100 = load i32, i32* %99, align 4
  store i32 %100, i32* %7, align 4
  br label %101

101:                                              ; preds = %96, %89
  br label %102

102:                                              ; preds = %101
  %103 = load i32, i32* %4, align 4
  %104 = add nsw i32 %103, 1
  store i32 %104, i32* %4, align 4
  br label %73

105:                                              ; preds = %73
  store i32 0, i32* %4, align 4
  br label %106

106:                                              ; preds = %141, %105
  %107 = load i32, i32* %4, align 4
  %108 = load i32, i32* %6, align 4
  %109 = icmp sle i32 %107, %108
  br i1 %109, label %110, label %144

110:                                              ; preds = %106
  %111 = load i32, i32* %4, align 4
  %112 = sext i32 %111 to i64
  %113 = getelementptr inbounds [50 x i32], [50 x i32]* %3, i64 0, i64 %112
  %114 = load i32, i32* %113, align 4
  %115 = load i32, i32* %8, align 4
  %116 = icmp eq i32 %114, %115
  br i1 %116, label %117, label %140

117:                                              ; preds = %110
  store i32 0, i32* %5, align 4
  br label %118

118:                                              ; preds = %135, %117
  %119 = load i32, i32* %5, align 4
  %120 = load i32, i32* %4, align 4
  %121 = sext i32 %120 to i64
  %122 = getelementptr inbounds [50 x i32], [50 x i32]* %3, i64 0, i64 %121
  %123 = load i32, i32* %122, align 4
  %124 = icmp slt i32 %119, %123
  br i1 %124, label %125, label %138

125:                                              ; preds = %118
  %126 = load i32, i32* %4, align 4
  %127 = sext i32 %126 to i64
  %128 = getelementptr inbounds [50 x [20 x i8]], [50 x [20 x i8]]* %2, i64 0, i64 %127
  %129 = load i32, i32* %5, align 4
  %130 = sext i32 %129 to i64
  %131 = getelementptr inbounds [20 x i8], [20 x i8]* %128, i64 0, i64 %130
  %132 = load i8, i8* %131, align 1
  %133 = sext i8 %132 to i32
  %134 = call i32 (i8*, ...) @printf(i8* getelementptr inbounds ([3 x i8], [3 x i8]* @.str, i64 0, i64 0), i32 %133)
  br label %135

135:                                              ; preds = %125
  %136 = load i32, i32* %5, align 4
  %137 = add nsw i32 %136, 1
  store i32 %137, i32* %5, align 4
  br label %118

138:                                              ; preds = %118
  %139 = call i32 (i8*, ...) @printf(i8* getelementptr inbounds ([2 x i8], [2 x i8]* @.str.1, i64 0, i64 0))
  br label %144

140:                                              ; preds = %110
  br label %141

141:                                              ; preds = %140
  %142 = load i32, i32* %4, align 4
  %143 = add nsw i32 %142, 1
  store i32 %143, i32* %4, align 4
  br label %106

144:                                              ; preds = %138, %106
  store i32 0, i32* %4, align 4
  br label %145

145:                                              ; preds = %179, %144
  %146 = load i32, i32* %4, align 4
  %147 = load i32, i32* %6, align 4
  %148 = icmp sle i32 %146, %147
  br i1 %148, label %149, label %182

149:                                              ; preds = %145
  %150 = load i32, i32* %4, align 4
  %151 = sext i32 %150 to i64
  %152 = getelementptr inbounds [50 x i32], [50 x i32]* %3, i64 0, i64 %151
  %153 = load i32, i32* %152, align 4
  %154 = load i32, i32* %7, align 4
  %155 = icmp eq i32 %153, %154
  br i1 %155, label %156, label %178

156:                                              ; preds = %149
  store i32 0, i32* %5, align 4
  br label %157

157:                                              ; preds = %174, %156
  %158 = load i32, i32* %5, align 4
  %159 = load i32, i32* %4, align 4
  %160 = sext i32 %159 to i64
  %161 = getelementptr inbounds [50 x i32], [50 x i32]* %3, i64 0, i64 %160
  %162 = load i32, i32* %161, align 4
  %163 = icmp slt i32 %158, %162
  br i1 %163, label %164, label %177

164:                                              ; preds = %157
  %165 = load i32, i32* %4, align 4
  %166 = sext i32 %165 to i64
  %167 = getelementptr inbounds [50 x [20 x i8]], [50 x [20 x i8]]* %2, i64 0, i64 %166
  %168 = load i32, i32* %5, align 4
  %169 = sext i32 %168 to i64
  %170 = getelementptr inbounds [20 x i8], [20 x i8]* %167, i64 0, i64 %169
  %171 = load i8, i8* %170, align 1
  %172 = sext i8 %171 to i32
  %173 = call i32 (i8*, ...) @printf(i8* getelementptr inbounds ([3 x i8], [3 x i8]* @.str, i64 0, i64 0), i32 %172)
  br label %174

174:                                              ; preds = %164
  %175 = load i32, i32* %5, align 4
  %176 = add nsw i32 %175, 1
  store i32 %176, i32* %5, align 4
  br label %157

177:                                              ; preds = %157
  br label %182

178:                                              ; preds = %149
  br label %179

179:                                              ; preds = %178
  %180 = load i32, i32* %4, align 4
  %181 = add nsw i32 %180, 1
  store i32 %181, i32* %4, align 4
  br label %145

182:                                              ; preds = %177, %145
  ret void
}

declare dso_local i32 @gets(...) #1

declare dso_local i32 @printf(i8*, ...) #1


!llvm.module.flags = !{!0}
!llvm.ident = !{!1}

!0 = !{i32 1, !"wchar_size", i32 4}
!1 = !{!"clang version 10.0.0-4ubuntu1 "}
